target datalayout = "e-m:e-p270:32:32-p271:32:32-p272:64:64-i64:64-i128:128-f80:128-n8:16:32:64-S128"
target triple = "x86_64-pc-linux-gnu"

%union.pthread_mutex_t = type { %struct.__pthread_mutex_s }
%struct.__pthread_mutex_s = type { i32, i32, i32, i32, i32, i16, i16, %struct.__pthread_internal_list }
%struct.__pthread_internal_list = type { ptr, ptr }
%struct.wolfSSL_RefWithMutex = type { %union.pthread_mutex_t, i32 }
%struct.WOLFSSL_CERT_MANAGER = type { [11 x ptr], ptr, ptr, ptr, ptr, ptr, ptr, ptr, ptr, ptr, ptr, ptr, ptr, %union.pthread_mutex_t, i8, i16, i16, %struct.wolfSSL_RefWithMutex }
%struct.WOLFSSL_CTX = type <{ ptr, %struct.wolfSSL_RefWithMutex, i32, [4 x i8], %struct.WOLFSSL_BUFFER_INFO, %struct.WOLFSSL_BUFFER_INFO, ptr, ptr, i32, [4 x i8], ptr, i8, i8, [2 x i8], i32, i32, [4 x i8], ptr, ptr, ptr, i8, i16, i8, i8, i8, i16, i16, i16, i16, [2 x i8], i64, ptr, ptr, ptr, ptr, i32, i32, i16, [2 x i8], i32, [10 x i16], i8, [3 x i8], ptr, ptr, i32, [4 x i8], ptr, i8, [7 x i8] }>
%struct.WOLFSSL_BUFFER_INFO = type { ptr, i32 }
%struct.SetVerifyOptions = type { i8 }

; Function Attrs: nounwind uwtable
define internal i8 @ModeToVerifyOptions(i32 noundef %0) #0 {
  %2 = alloca %struct.SetVerifyOptions, align 1
  %3 = alloca i32, align 4
  store i32 %0, ptr %3, align 4, !tbaa !7
  call void @llvm.memset.p0.i64(ptr align 1 %2, i8 0, i64 1, i1 false)
  %4 = load i32, ptr %3, align 4, !tbaa !7
  %5 = icmp ne i32 %4, 512
  br i1 %5, label %6, label %51

6:                                                ; preds = %1
  %7 = load i32, ptr %3, align 4, !tbaa !7
  %8 = icmp eq i32 %7, 0
  %9 = zext i1 %8 to i32
  %10 = trunc i32 %9 to i8
  %11 = load i8, ptr %2, align 1
  %12 = and i8 %10, 1
  %13 = shl i8 %12, 1
  %14 = and i8 %11, -3
  %15 = or i8 %14, %13
  store i8 %15, ptr %2, align 1
  %16 = load i8, ptr %2, align 1
  %17 = lshr i8 %16, 1
  %18 = and i8 %17, 1
  %19 = icmp ne i8 %18, 0
  br i1 %19, label %50, label %20

20:                                               ; preds = %6
  %21 = load i32, ptr %3, align 4, !tbaa !7
  %22 = and i32 %21, 1
  %23 = icmp ne i32 %22, 0
  %24 = zext i1 %23 to i32
  %25 = trunc i32 %24 to i8
  %26 = load i8, ptr %2, align 1
  %27 = and i8 %25, 1
  %28 = and i8 %26, -2
  %29 = or i8 %28, %27
  store i8 %29, ptr %2, align 1
  %30 = load i32, ptr %3, align 4, !tbaa !7
  %31 = and i32 %30, 16
  %32 = icmp ne i32 %31, 0
  %33 = zext i1 %32 to i32
  %34 = trunc i32 %33 to i8
  %35 = load i8, ptr %2, align 1
  %36 = and i8 %34, 1
  %37 = shl i8 %36, 3
  %38 = and i8 %35, -9
  %39 = or i8 %38, %37
  store i8 %39, ptr %2, align 1
  %40 = load i32, ptr %3, align 4, !tbaa !7
  %41 = and i32 %40, 2
  %42 = icmp ne i32 %41, 0
  %43 = zext i1 %42 to i32
  %44 = trunc i32 %43 to i8
  %45 = load i8, ptr %2, align 1
  %46 = and i8 %44, 1
  %47 = shl i8 %46, 2
  %48 = and i8 %45, -5
  %49 = or i8 %48, %47
  store i8 %49, ptr %2, align 1
  br label %50

50:                                               ; preds = %20, %6
  br label %51

51:                                               ; preds = %50, %1
  %52 = getelementptr inbounds nuw %struct.SetVerifyOptions, ptr %2, i32 0, i32 0
  %53 = load i8, ptr %52, align 1
  ret i8 %53
}

; Function Attrs: nounwind uwtable
define void @wolfSSL_CTX_free(ptr noundef %0) #0 {
  %2 = alloca ptr, align 8
  store ptr %0, ptr %2, align 8, !tbaa !24
  br label %3

3:                                                ; preds = %1
  br label %4

4:                                                ; preds = %3
  %5 = load ptr, ptr %2, align 8, !tbaa !24
  %6 = icmp ne ptr %5, null
  br i1 %6, label %7, label %9

7:                                                ; preds = %4
  %8 = load ptr, ptr %2, align 8, !tbaa !24
  call void @FreeSSL_Ctx(ptr noundef %8)
  br label %9

9:                                                ; preds = %7, %4
  br label %10

10:                                               ; preds = %9
  br label %11

11:                                               ; preds = %10
  ret void
}

; Function Attrs: nounwind uwtable
define i32 @wolfSSL_CTX_load_verify_locations(ptr noundef %0, ptr noundef %1, ptr noundef %2) #0 {
  %4 = alloca ptr, align 8
  %5 = alloca ptr, align 8
  %6 = alloca ptr, align 8
  %7 = alloca i32, align 4
  store ptr %0, ptr %4, align 8, !tbaa !24
  store ptr %1, ptr %5, align 8, !tbaa !21
  store ptr %2, ptr %6, align 8, !tbaa !21
  call void @llvm.lifetime.start.p0(i64 4, ptr %7) #9
  %8 = load ptr, ptr %4, align 8, !tbaa !24
  %9 = load ptr, ptr %5, align 8, !tbaa !21
  %10 = load ptr, ptr %6, align 8, !tbaa !21
  %11 = call i32 @wolfSSL_CTX_load_verify_locations_ex(ptr noundef %8, ptr noundef %9, ptr noundef %10, i32 noundef 0)
  store i32 %11, ptr %7, align 4, !tbaa !7
  %12 = load i32, ptr %7, align 4, !tbaa !7
  call void @llvm.lifetime.end.p0(i64 4, ptr %7) #9
  ret i32 %12
}

; Function Attrs: nounwind uwtable
define void @wolfSSL_CertManagerFree(ptr noundef %0) #0 {
  %2 = alloca ptr, align 8
  %3 = alloca i32, align 4
  %4 = alloca i32, align 4
  %5 = alloca ptr, align 8
  store ptr %0, ptr %2, align 8, !tbaa !9
  br label %6

6:                                                ; preds = %1
  br label %7

7:                                                ; preds = %6
  %8 = load ptr, ptr %2, align 8, !tbaa !9
  %9 = icmp ne ptr %8, null
  br i1 %9, label %10, label %44

10:                                               ; preds = %7
  call void @llvm.lifetime.start.p0(i64 4, ptr %3) #9
  store i32 0, ptr %3, align 4, !tbaa !7
  call void @llvm.lifetime.start.p0(i64 4, ptr %4) #9
  %11 = load ptr, ptr %2, align 8, !tbaa !9
  %12 = getelementptr inbounds nuw %struct.WOLFSSL_CERT_MANAGER, ptr %11, i32 0, i32 17
  call void @wolfSSL_RefWithMutexDec(ptr noundef %12, ptr noundef %3, ptr noundef %4)
  %13 = load i32, ptr %4, align 4, !tbaa !7
  %14 = icmp ne i32 %13, 0
  br i1 %14, label %15, label %19

15:                                               ; preds = %10
  br label %16

16:                                               ; preds = %15
  br label %17

17:                                               ; preds = %16
  br label %18

18:                                               ; preds = %17
  br label %19

19:                                               ; preds = %18, %10
  %20 = load i32, ptr %3, align 4, !tbaa !7
  %21 = icmp ne i32 %20, 0
  br i1 %21, label %22, label %43

22:                                               ; preds = %19
  %23 = load ptr, ptr %2, align 8, !tbaa !9
  %24 = getelementptr inbounds nuw %struct.WOLFSSL_CERT_MANAGER, ptr %23, i32 0, i32 0
  %25 = getelementptr inbounds [11 x ptr], ptr %24, i64 0, i64 0
  %26 = load ptr, ptr %2, align 8, !tbaa !9
  %27 = getelementptr inbounds nuw %struct.WOLFSSL_CERT_MANAGER, ptr %26, i32 0, i32 1
  %28 = load ptr, ptr %27, align 8, !tbaa !19
  call void @FreeSignerTable(ptr noundef %25, i32 noundef 11, ptr noundef %28)
  %29 = load ptr, ptr %2, align 8, !tbaa !9
  %30 = getelementptr inbounds nuw %struct.WOLFSSL_CERT_MANAGER, ptr %29, i32 0, i32 13
  %31 = call i32 @wc_FreeMutex(ptr noundef %30)
  %32 = load ptr, ptr %2, align 8, !tbaa !9
  %33 = getelementptr inbounds nuw %struct.WOLFSSL_CERT_MANAGER, ptr %32, i32 0, i32 17
  call void @wolfSSL_RefWithMutexFree(ptr noundef %33)
  br label %34

34:                                               ; preds = %22
  call void @llvm.lifetime.start.p0(i64 8, ptr %5) #9
  %35 = load ptr, ptr %2, align 8, !tbaa !9
  store ptr %35, ptr %5, align 8, !tbaa !3
  %36 = load ptr, ptr %5, align 8, !tbaa !3
  %37 = icmp ne ptr %36, null
  br i1 %37, label %38, label %40

38:                                               ; preds = %34
  %39 = load ptr, ptr %5, align 8, !tbaa !3
  call void @wolfSSL_Free(ptr noundef %39)
  br label %40

40:                                               ; preds = %38, %34
  call void @llvm.lifetime.end.p0(i64 8, ptr %5) #9
  br label %41

41:                                               ; preds = %40
  br label %42

42:                                               ; preds = %41
  br label %43

43:                                               ; preds = %42, %19
  call void @llvm.lifetime.end.p0(i64 4, ptr %4) #9
  call void @llvm.lifetime.end.p0(i64 4, ptr %3) #9
  br label %44

44:                                               ; preds = %43, %7
  ret void
}

; Function Attrs: nounwind uwtable
define void @wolfSSL_CTX_set_verify(ptr noundef %0, i32 noundef %1, ptr noundef %2) #0 {
  %4 = alloca ptr, align 8
  %5 = alloca i32, align 4
  %6 = alloca ptr, align 8
  %7 = alloca %struct.SetVerifyOptions, align 1
  %8 = alloca i32, align 4
  %9 = alloca %struct.SetVerifyOptions, align 1
  store ptr %0, ptr %4, align 8, !tbaa !24
  store i32 %1, ptr %5, align 4, !tbaa !7
  store ptr %2, ptr %6, align 8, !tbaa !3
  call void @llvm.lifetime.start.p0(i64 1, ptr %7) #9
  br label %10

10:                                               ; preds = %3
  br label %11

11:                                               ; preds = %10
  br label %12

12:                                               ; preds = %11
  %13 = load ptr, ptr %4, align 8, !tbaa !24
  %14 = icmp eq ptr %13, null
  br i1 %14, label %15, label %16

15:                                               ; preds = %12
  store i32 1, ptr %8, align 4
  br label %65

16:                                               ; preds = %12
  call void @llvm.lifetime.start.p0(i64 1, ptr %9) #9
  %17 = load i32, ptr %5, align 4, !tbaa !7
  %18 = call i8 @ModeToVerifyOptions(i32 noundef %17)
  %19 = getelementptr inbounds nuw %struct.SetVerifyOptions, ptr %9, i32 0, i32 0
  store i8 %18, ptr %19, align 1
  call void @llvm.memcpy.p0.p0.i64(ptr align 1 %7, ptr align 1 %9, i64 1, i1 false), !tbaa.struct !34
  call void @llvm.lifetime.end.p0(i64 1, ptr %9) #9
  %20 = load i8, ptr %7, align 1
  %21 = lshr i8 %20, 1
  %22 = and i8 %21, 1
  %23 = load ptr, ptr %4, align 8, !tbaa !24
  %24 = getelementptr inbounds nuw %struct.WOLFSSL_CTX, ptr %23, i32 0, i32 21
  %25 = zext i8 %22 to i16
  %26 = load i16, ptr %24, align 1
  %27 = and i16 %25, 1
  %28 = shl i16 %27, 1
  %29 = and i16 %26, -3
  %30 = or i16 %29, %28
  store i16 %30, ptr %24, align 1
  %31 = load i8, ptr %7, align 1
  %32 = and i8 %31, 1
  %33 = load ptr, ptr %4, align 8, !tbaa !24
  %34 = getelementptr inbounds nuw %struct.WOLFSSL_CTX, ptr %33, i32 0, i32 21
  %35 = zext i8 %32 to i16
  %36 = load i16, ptr %34, align 1
  %37 = and i16 %35, 1
  %38 = and i16 %36, -2
  %39 = or i16 %38, %37
  store i16 %39, ptr %34, align 1
  %40 = load i8, ptr %7, align 1
  %41 = lshr i8 %40, 2
  %42 = and i8 %41, 1
  %43 = load ptr, ptr %4, align 8, !tbaa !24
  %44 = getelementptr inbounds nuw %struct.WOLFSSL_CTX, ptr %43, i32 0, i32 21
  %45 = zext i8 %42 to i16
  %46 = load i16, ptr %44, align 1
  %47 = and i16 %45, 1
  %48 = shl i16 %47, 2
  %49 = and i16 %46, -5
  %50 = or i16 %49, %48
  store i16 %50, ptr %44, align 1
  %51 = load i8, ptr %7, align 1
  %52 = lshr i8 %51, 3
  %53 = and i8 %52, 1
  %54 = load ptr, ptr %4, align 8, !tbaa !24
  %55 = getelementptr inbounds nuw %struct.WOLFSSL_CTX, ptr %54, i32 0, i32 21
  %56 = zext i8 %53 to i16
  %57 = load i16, ptr %55, align 1
  %58 = and i16 %56, 1
  %59 = shl i16 %58, 3
  %60 = and i16 %57, -9
  %61 = or i16 %60, %59
  store i16 %61, ptr %55, align 1
  %62 = load ptr, ptr %6, align 8, !tbaa !3
  %63 = load ptr, ptr %4, align 8, !tbaa !24
  %64 = getelementptr inbounds nuw %struct.WOLFSSL_CTX, ptr %63, i32 0, i32 33
  store ptr %62, ptr %64, align 8, !tbaa !35
  store i32 0, ptr %8, align 4
  br label %65

65:                                               ; preds = %16, %15
  call void @llvm.lifetime.end.p0(i64 1, ptr %7) #9
  %66 = load i32, ptr %8, align 4
  switch i32 %66, label %68 [
    i32 0, label %67
    i32 1, label %67
  ]

67:                                               ; preds = %65, %65
  ret void

68:                                               ; preds = %65
  unreachable
}

; Function Attrs: inlinehint nounwind uwtable
define internal ptr @cm_pick_method(ptr noundef %0) #4 {
  %2 = alloca ptr, align 8
  store ptr %0, ptr %2, align 8, !tbaa !3
  %3 = load ptr, ptr %2, align 8, !tbaa !3
  %4 = call ptr @wolfTLSv1_1_client_method_ex(ptr noundef %3)
  ret ptr %4
}

; Function Attrs: nounwind uwtable
define i32 @wolfSSL_CertManagerLoadCA(ptr noundef %0, ptr noundef %1, ptr noundef %2) #0 {
  %4 = alloca ptr, align 8
  %5 = alloca ptr, align 8
  %6 = alloca ptr, align 8
  %7 = alloca i32, align 4
  %8 = alloca ptr, align 8
  store ptr %0, ptr %4, align 8, !tbaa !9
  store ptr %1, ptr %5, align 8, !tbaa !21
  store ptr %2, ptr %6, align 8, !tbaa !21
  call void @llvm.lifetime.start.p0(i64 4, ptr %7) #9
  store i32 1, ptr %7, align 4, !tbaa !7
  call void @llvm.lifetime.start.p0(i64 8, ptr %8) #9
  store ptr null, ptr %8, align 8, !tbaa !24
  br label %9

9:                                                ; preds = %3
  br label %10

10:                                               ; preds = %9
  br label %11

11:                                               ; preds = %10
  %12 = load ptr, ptr %4, align 8, !tbaa !9
  %13 = icmp eq ptr %12, null
  br i1 %13, label %14, label %18

14:                                               ; preds = %11
  br label %15

15:                                               ; preds = %14
  br label %16

16:                                               ; preds = %15
  br label %17

17:                                               ; preds = %16
  store i32 -1, ptr %7, align 4, !tbaa !7
  br label %18

18:                                               ; preds = %17, %11
  %19 = load i32, ptr %7, align 4, !tbaa !7
  %20 = icmp eq i32 %19, 1
  br i1 %20, label %21, label %35

21:                                               ; preds = %18
  %22 = load ptr, ptr %4, align 8, !tbaa !9
  %23 = getelementptr inbounds nuw %struct.WOLFSSL_CERT_MANAGER, ptr %22, i32 0, i32 1
  %24 = load ptr, ptr %23, align 8, !tbaa !19
  %25 = call ptr @cm_pick_method(ptr noundef %24)
  %26 = load ptr, ptr %4, align 8, !tbaa !9
  %27 = getelementptr inbounds nuw %struct.WOLFSSL_CERT_MANAGER, ptr %26, i32 0, i32 1
  %28 = load ptr, ptr %27, align 8, !tbaa !19
  %29 = call ptr @wolfSSL_CTX_new_ex(ptr noundef %25, ptr noundef %28)
  store ptr %29, ptr %8, align 8, !tbaa !24
  %30 = icmp eq ptr %29, null
  br i1 %30, label %31, label %35

31:                                               ; preds = %21
  br label %32

32:                                               ; preds = %31
  br label %33

33:                                               ; preds = %32
  br label %34

34:                                               ; preds = %33
  store i32 -1, ptr %7, align 4, !tbaa !7
  br label %35

35:                                               ; preds = %34, %21, %18
  %36 = load i32, ptr %7, align 4, !tbaa !7
  %37 = icmp eq i32 %36, 1
  br i1 %37, label %38, label %52

38:                                               ; preds = %35
  %39 = load ptr, ptr %8, align 8, !tbaa !24
  call void @wolfSSL_CTX_set_verify(ptr noundef %39, i32 noundef 512, ptr noundef null)
  %40 = load ptr, ptr %8, align 8, !tbaa !24
  %41 = getelementptr inbounds nuw %struct.WOLFSSL_CTX, ptr %40, i32 0, i32 17
  %42 = load ptr, ptr %41, align 8, !tbaa !26
  call void @wolfSSL_CertManagerFree(ptr noundef %42)
  %43 = load ptr, ptr %4, align 8, !tbaa !9
  %44 = load ptr, ptr %8, align 8, !tbaa !24
  %45 = getelementptr inbounds nuw %struct.WOLFSSL_CTX, ptr %44, i32 0, i32 17
  store ptr %43, ptr %45, align 8, !tbaa !26
  %46 = load ptr, ptr %8, align 8, !tbaa !24
  %47 = load ptr, ptr %5, align 8, !tbaa !21
  %48 = load ptr, ptr %6, align 8, !tbaa !21
  %49 = call i32 @wolfSSL_CTX_load_verify_locations(ptr noundef %46, ptr noundef %47, ptr noundef %48)
  store i32 %49, ptr %7, align 4, !tbaa !7
  %50 = load ptr, ptr %8, align 8, !tbaa !24
  %51 = getelementptr inbounds nuw %struct.WOLFSSL_CTX, ptr %50, i32 0, i32 17
  store ptr null, ptr %51, align 8, !tbaa !26
  br label %52

52:                                               ; preds = %38, %35
  %53 = load ptr, ptr %8, align 8, !tbaa !24
  call void @wolfSSL_CTX_free(ptr noundef %53)
  %54 = load i32, ptr %7, align 4, !tbaa !7
  call void @llvm.lifetime.end.p0(i64 8, ptr %8) #9
  call void @llvm.lifetime.end.p0(i64 4, ptr %7) #9
  ret i32 %54
}