; Function Attrs: nounwind uwtable
define i32 @wolfSSL_CertManagerLoadCA(ptr noundef %0, ptr noundef captures(address_is_null) %1, ptr noundef %2) local_unnamed_addr #0 {
  %4 = alloca i32, align 4
  %5 = alloca i32, align 4
  %.not = icmp eq ptr %0, null
  br i1 %.not, label %wolfSSL_CTX_free.exit, label %6

6:                                                ; preds = %3
  %7 = getelementptr inbounds nuw i8, ptr %0, i64 88
  %8 = load ptr, ptr %7, align 8, !tbaa !16
  %9 = tail call ptr @wolfTLSv1_1_client_method_ex(ptr noundef %8) #22
  %10 = load ptr, ptr %7, align 8, !tbaa !16
  %11 = tail call ptr @wolfSSL_CTX_new_ex(ptr noundef %9, ptr noundef %10)
  %12 = icmp eq ptr %11, null
  br i1 %12, label %wolfSSL_CTX_free.exit, label %wolfSSL_CTX_set_verify.exit

wolfSSL_CTX_set_verify.exit:                      ; preds = %6
  %13 = getelementptr inbounds nuw i8, ptr %11, i64 169
  %14 = load i16, ptr %13, align 1
  %15 = and i16 %14, -16
  store i16 %15, ptr %13, align 1
  %16 = getelementptr inbounds nuw i8, ptr %11, i64 208
  store ptr null, ptr %16, align 8, !tbaa !17
  %17 = getelementptr inbounds nuw i8, ptr %11, i64 144
  %18 = load ptr, ptr %17, align 8, !tbaa !26
  %.not.i = icmp eq ptr %18, null
  br i1 %.not.i, label %28, label %19

19:                                               ; preds = %wolfSSL_CTX_set_verify.exit
  call void @llvm.lifetime.start.p0(i64 4, ptr nonnull %4) #22
  store i32 0, ptr %4, align 4, !tbaa !3
  call void @llvm.lifetime.start.p0(i64 4, ptr nonnull %5) #22
  %20 = getelementptr inbounds nuw i8, ptr %18, i64 232
  call void @wolfSSL_RefWithMutexDec(ptr noundef nonnull %20, ptr noundef nonnull %4, ptr noundef nonnull %5) #22
  %21 = load i32, ptr %4, align 4, !tbaa !3
  %.not9.i = icmp eq i32 %21, 0
  br i1 %.not9.i, label %27, label %22

22:                                               ; preds = %19
  %23 = getelementptr inbounds nuw i8, ptr %18, i64 88
  %24 = load ptr, ptr %23, align 8, !tbaa !16
  call void @FreeSignerTable(ptr noundef nonnull %18, i32 noundef 11, ptr noundef %24) #22
  %25 = getelementptr inbounds nuw i8, ptr %18, i64 184
  %26 = call i32 @wc_FreeMutex(ptr noundef nonnull %25) #22
  call void @wolfSSL_RefWithMutexFree(ptr noundef nonnull %20) #22
  call void @wolfSSL_Free(ptr noundef nonnull %18) #22
  br label %27

27:                                               ; preds = %22, %19
  call void @llvm.lifetime.end.p0(i64 4, ptr nonnull %5) #22
  call void @llvm.lifetime.end.p0(i64 4, ptr nonnull %4) #22
  br label %28

28:                                               ; preds = %wolfSSL_CTX_set_verify.exit, %27
  store ptr %0, ptr %17, align 8, !tbaa !26
  %29 = call i32 @wolfSSL_CTX_load_verify_locations_ex(ptr noundef nonnull %11, ptr noundef %1, ptr noundef %2, i32 noundef 0)
  store ptr null, ptr %17, align 8, !tbaa !26
  call void @FreeSSL_Ctx(ptr noundef nonnull %11) #22
  br label %wolfSSL_CTX_free.exit

wolfSSL_CTX_free.exit:                            ; preds = %3, %6, %28
  %.234 = phi i32 [ %29, %28 ], [ -1, %6 ], [ -1, %3 ]
  ret i32 %.234
}